target datalayout = "e-m:e-p270:32:32-p271:32:32-p272:64:64-i64:64-i128:128-f80:128-n8:16:32:64-S128"
target triple = "x86_64-pc-linux-gnu"

; Function Attrs: mustprogress uwtable
define noundef i32 @_Z20ParseVersionFileNamePwb(ptr noundef %0, i1 noundef zeroext %1) #0 {
  %3 = alloca ptr, align 8
  %4 = alloca i8, align 1
  %5 = alloca i32, align 4
  %6 = alloca ptr, align 8
  store ptr %0, ptr %3, align 8
  %7 = zext i1 %1 to i8
  store i8 %7, ptr %4, align 1
  store i32 0, ptr %5, align 4
  %8 = load ptr, ptr %3, align 8
  %9 = call ptr @wcsrchr(ptr noundef %8, i32 noundef signext 59) #6
  store ptr %9, ptr %6, align 8
  %10 = load ptr, ptr %6, align 8
  %11 = icmp ne ptr %10, null
  br i1 %11, label %12, label %21

12:                                               ; preds = %2
  %13 = load ptr, ptr %6, align 8
  %14 = getelementptr inbounds i32, ptr %13, i64 1
  %15 = call noundef i32 @_Z5atoiwPKw(ptr noundef %14)
  store i32 %15, ptr %5, align 4
  %16 = load i8, ptr %4, align 1
  %17 = trunc i8 %16 to i1
  br i1 %17, label %18, label %20

18:                                               ; preds = %12
  %19 = load ptr, ptr %6, align 8
  store i32 0, ptr %19, align 4
  br label %20

20:                                               ; preds = %18, %12
  br label %21

21:                                               ; preds = %20, %2
  %22 = load i32, ptr %5, align 4
  ret i32 %22
}