; Function Attrs: mustprogress uwtable
define noundef i32 @_Z20ParseVersionFileNamePwb(ptr noundef %0, i1 noundef zeroext %1) local_unnamed_addr #3 {
  %3 = tail call ptr @wcsrchr(ptr noundef %0, i32 noundef signext 59) #18
  %.not = icmp eq ptr %3, null
  br i1 %.not, label %8, label %4

4:                                                ; preds = %2
  %5 = getelementptr inbounds nuw i8, ptr %3, i64 4
  %6 = tail call noundef i32 @_Z5atoiwPKw(ptr noundef nonnull %5)
  br i1 %1, label %7, label %8

7:                                                ; preds = %4
  store i32 0, ptr %3, align 4
  br label %8

8:                                                ; preds = %4, %7, %2
  %.0 = phi i32 [ %6, %7 ], [ %6, %4 ], [ 0, %2 ]
  ret i32 %.0
}